; Function Attrs: nounwind uwtable
define noalias noundef nonnull ptr @l_List___aux__Init__Data__List__BasicAux______macroRules__tacticDecreasing__trivial__1(ptr noundef %0, ptr noundef readonly captures(none) %1, ptr noundef %2) local_unnamed_addr #0 {
  %4 = load ptr, ptr @l_List___aux__Init__Data__List__BasicAux______macroRules__tacticDecreasing__trivial__1___closed__2, align 8, !tbaa !10
  %5 = tail call zeroext i8 @l_Lean_Syntax_isOfKind(ptr noundef %0, ptr noundef %4) #4
  %6 = icmp eq i8 %5, 0
  br i1 %6, label %7, label %11

7:                                                ; preds = %3
  tail call void @lean_inc_heartbeat() #4
  %8 = tail call noalias ptr @mi_malloc_small(i64 noundef 24) #4
  %9 = icmp eq ptr %8, null
  br i1 %9, label %10, label %lean_alloc_ctor.exit

10:                                               ; preds = %7
  tail call void @lean_internal_panic_out_of_memory() #5
  unreachable

11:                                               ; preds = %3
  %12 = getelementptr inbounds nuw i8, ptr %1, i64 48
  %13 = load ptr, ptr %12, align 8, !tbaa !10
  %14 = tail call ptr @l_Lean_SourceInfo_fromRef(ptr noundef %13, i8 noundef zeroext 0) #4
  %15 = load ptr, ptr @l_List_tacticSizeOf__list__dec___closed__4, align 8, !tbaa !10
  %16 = ptrtoint ptr %14 to i64
  %17 = and i64 %16, 1
  %.not = icmp eq i64 %17, 0
  br i1 %.not, label %18, label %lean_inc.exit

18:                                               ; preds = %11
  %.val.i = load i32, ptr %14, align 4, !tbaa !4
  %19 = icmp sgt i32 %.val.i, 0
  br i1 %19, label %20, label %22, !prof !9

20:                                               ; preds = %18
  %21 = add nuw i32 %.val.i, 1
  store i32 %21, ptr %14, align 4, !tbaa !4
  br label %lean_inc.exit

22:                                               ; preds = %18
  %.not.i = icmp eq i32 %.val.i, 0
  br i1 %.not.i, label %lean_inc.exit, label %23

23:                                               ; preds = %22
  tail call void @lean_inc_ref_cold(ptr noundef nonnull %14) #4
  br label %lean_inc.exit

lean_inc.exit:                                    ; preds = %23, %22, %20, %11
  tail call void @lean_inc_heartbeat() #4
  %24 = tail call noalias ptr @mi_malloc_small(i64 noundef 24) #4
  %25 = icmp eq ptr %24, null
  br i1 %25, label %26, label %lean_alloc_ctor.exit24

26:                                               ; preds = %lean_inc.exit
  tail call void @lean_internal_panic_out_of_memory() #5
  unreachable

lean_alloc_ctor.exit24:                           ; preds = %lean_inc.exit
  %27 = getelementptr inbounds nuw i8, ptr %24, i64 4
  store i32 1, ptr %24, align 4, !tbaa !4
  store i32 33685528, ptr %27, align 4
  %28 = getelementptr inbounds nuw i8, ptr %24, i64 8
  store ptr %14, ptr %28, align 8, !tbaa !10
  %29 = getelementptr inbounds nuw i8, ptr %24, i64 16
  store ptr %15, ptr %29, align 8, !tbaa !10
  %30 = load ptr, ptr @l_List_tacticSizeOf__list__dec___closed__3, align 8, !tbaa !10
  %31 = tail call ptr @l_Lean_Syntax_node1(ptr noundef %14, ptr noundef %30, ptr noundef nonnull %24) #4
  tail call void @lean_inc_heartbeat() #4
  %32 = tail call noalias ptr @mi_malloc_small(i64 noundef 24) #4
  %33 = icmp eq ptr %32, null
  br i1 %33, label %34, label %lean_alloc_ctor.exit

34:                                               ; preds = %lean_alloc_ctor.exit24
  tail call void @lean_internal_panic_out_of_memory() #5
  unreachable

lean_alloc_ctor.exit:                             ; preds = %lean_alloc_ctor.exit24, %7
  %.sink32 = phi ptr [ %8, %7 ], [ %32, %lean_alloc_ctor.exit24 ]
  %.sink29 = phi i32 [ 16908312, %7 ], [ 131096, %lean_alloc_ctor.exit24 ]
  %.sink = phi ptr [ inttoptr (i64 3 to ptr), %7 ], [ %31, %lean_alloc_ctor.exit24 ]
  %35 = getelementptr inbounds nuw i8, ptr %.sink32, i64 4
  store i32 1, ptr %.sink32, align 4, !tbaa !4
  store i32 %.sink29, ptr %35, align 4
  %36 = getelementptr inbounds nuw i8, ptr %.sink32, i64 8
  store ptr %.sink, ptr %36, align 8, !tbaa !10
  %37 = getelementptr inbounds nuw i8, ptr %.sink32, i64 16
  store ptr %2, ptr %37, align 8, !tbaa !10
  ret ptr %.sink32
}